target datalayout = "e-m:e-p270:32:32-p271:32:32-p272:64:64-i64:64-i128:128-f80:128-n8:16:32:64-S128"
target triple = "x86_64-pc-linux-gnu"

%struct.FormData_pg_replication_origin = type { i32, %struct.varlena }
%struct.varlena = type { [4 x i8], [0 x i8] }
%struct.HeapTupleData = type { i32, %struct.ItemPointerData, i32, ptr }
%struct.ItemPointerData = type { %struct.BlockIdData, i16 }
%struct.BlockIdData = type { i16, i16 }
%struct.HeapTupleHeaderData = type { %union.anon, %struct.ItemPointerData, i16, i16, i8, [0 x i8] }
%union.anon = type { %struct.HeapTupleFields }
%struct.HeapTupleFields = type { i32, i32, %union.anon.0 }
%union.anon.0 = type { i32 }

@.str.1 = private unnamed_addr constant [9 x i8] c"origin.c\00", align 1
@.str.4 = private unnamed_addr constant [45 x i8] c"replication origin with ID %d does not exist\00", align 1
@__func__.replorigin_by_oid = private unnamed_addr constant [18 x i8] c"replorigin_by_oid\00", align 1

; Function Attrs: inlinehint nounwind uwtable
define internal ptr @GETSTRUCT(ptr noundef %0) #2 {
  %2 = alloca ptr, align 8
  store ptr %0, ptr %2, align 8
  %3 = load ptr, ptr %2, align 8
  %4 = getelementptr inbounds nuw %struct.HeapTupleData, ptr %3, i32 0, i32 3
  %5 = load ptr, ptr %4, align 8
  %6 = load ptr, ptr %2, align 8
  %7 = getelementptr inbounds nuw %struct.HeapTupleData, ptr %6, i32 0, i32 3
  %8 = load ptr, ptr %7, align 8
  %9 = getelementptr inbounds nuw %struct.HeapTupleHeaderData, ptr %8, i32 0, i32 4
  %10 = load i8, ptr %9, align 2
  %11 = zext i8 %10 to i32
  %12 = sext i32 %11 to i64
  %13 = getelementptr inbounds i8, ptr %5, i64 %12
  ret ptr %13
}

; Function Attrs: inlinehint nounwind uwtable
define internal i64 @ObjectIdGetDatum(i32 noundef %0) #2 {
  %2 = alloca i32, align 4
  store i32 %0, ptr %2, align 4
  %3 = load i32, ptr %2, align 4
  %4 = zext i32 %3 to i64
  ret i64 %4
}

; Function Attrs: nounwind uwtable
define dso_local zeroext i1 @replorigin_by_oid(i16 noundef zeroext %0, i1 noundef zeroext %1, ptr noundef %2) #0 {
  %4 = alloca i1, align 1
  %5 = alloca i16, align 2
  %6 = alloca i8, align 1
  %7 = alloca ptr, align 8
  %8 = alloca ptr, align 8
  %9 = alloca ptr, align 8
  %10 = alloca i32, align 4
  store i16 %0, ptr %5, align 2
  %11 = zext i1 %1 to i8
  store i8 %11, ptr %6, align 1
  store ptr %2, ptr %7, align 8
  call void @llvm.lifetime.start.p0(i64 8, ptr %8) #9
  call void @llvm.lifetime.start.p0(i64 8, ptr %9) #9
  %12 = load i16, ptr %5, align 2
  %13 = zext i16 %12 to i32
  %14 = call i64 @ObjectIdGetDatum(i32 noundef %13)
  %15 = call ptr @SearchSysCache1(i32 noundef 58, i64 noundef %14)
  store ptr %15, ptr %8, align 8
  %16 = load ptr, ptr %8, align 8
  %17 = icmp ne ptr %16, null
  br i1 %17, label %18, label %26

18:                                               ; preds = %3
  %19 = load ptr, ptr %8, align 8
  %20 = call ptr @GETSTRUCT(ptr noundef %19)
  store ptr %20, ptr %9, align 8
  %21 = load ptr, ptr %9, align 8
  %22 = getelementptr inbounds nuw %struct.FormData_pg_replication_origin, ptr %21, i32 0, i32 1
  %23 = call ptr @text_to_cstring(ptr noundef %22)
  %24 = load ptr, ptr %7, align 8
  store ptr %23, ptr %24, align 8
  %25 = load ptr, ptr %8, align 8
  call void @ReleaseSysCache(ptr noundef %25)
  store i1 true, ptr %4, align 1
  store i32 1, ptr %10, align 4
  br label %45

26:                                               ; preds = %3
  %27 = load ptr, ptr %7, align 8
  store ptr null, ptr %27, align 8
  %28 = load i8, ptr %6, align 1, !range !4, !noundef !5
  %29 = trunc i8 %28 to i1
  br i1 %29, label %44, label %30

30:                                               ; preds = %26
  br label %31

31:                                               ; preds = %30
  br i1 true, label %32, label %34

32:                                               ; preds = %31
  %33 = call zeroext i1 @errstart_cold(i32 noundef 21, ptr noundef null) #10
  br i1 %33, label %36, label %41

34:                                               ; preds = %31
  %35 = call zeroext i1 @errstart(i32 noundef 21, ptr noundef null)
  br i1 %35, label %36, label %41

36:                                               ; preds = %34, %32
  %37 = call i32 @errcode(i32 noundef 67137668)
  %38 = load i16, ptr %5, align 2
  %39 = zext i16 %38 to i32
  %40 = call i32 (ptr, ...) @errmsg(ptr noundef @.str.4, i32 noundef %39)
  call void @errfinish(ptr noundef @.str.1, i32 noundef 497, ptr noundef @__func__.replorigin_by_oid)
  br label %41

41:                                               ; preds = %36, %34, %32
  unreachable

42:                                               ; No predecessors!
  br label %43

43:                                               ; preds = %42
  br label %44

44:                                               ; preds = %43, %26
  store i1 false, ptr %4, align 1
  store i32 1, ptr %10, align 4
  br label %45

45:                                               ; preds = %44, %18
  call void @llvm.lifetime.end.p0(i64 8, ptr %9) #9
  call void @llvm.lifetime.end.p0(i64 8, ptr %8) #9
  %46 = load i1, ptr %4, align 1
  ret i1 %46
}