; Function Attrs: nounwind uwtable
define dso_local noundef zeroext i1 @replorigin_by_oid(i16 noundef zeroext %0, i1 noundef zeroext %1, ptr noundef writeonly captures(none) initializes((0, 8)) %2) local_unnamed_addr #0 {
  %4 = zext i16 %0 to i64
  %5 = tail call ptr @SearchSysCache1(i32 noundef 58, i64 noundef %4) #10
  %.not = icmp ne ptr %5, null
  br i1 %.not, label %6, label %14

6:                                                ; preds = %3
  %7 = getelementptr i8, ptr %5, i64 16
  %.val = load ptr, ptr %7, align 8
  %8 = getelementptr inbounds nuw i8, ptr %.val, i64 22
  %9 = load i8, ptr %8, align 2
  %10 = zext i8 %9 to i64
  %11 = getelementptr inbounds nuw i8, ptr %.val, i64 %10
  %12 = getelementptr inbounds nuw i8, ptr %11, i64 4
  %13 = tail call ptr @text_to_cstring(ptr noundef nonnull %12) #10
  store ptr %13, ptr %2, align 8
  tail call void @ReleaseSysCache(ptr noundef nonnull %5) #10
  br label %20

14:                                               ; preds = %3
  store ptr null, ptr %2, align 8
  br i1 %1, label %20, label %15

15:                                               ; preds = %14
  %16 = zext i16 %0 to i32
  %17 = tail call zeroext i1 @errstart_cold(i32 noundef 21, ptr noundef null) #11
  tail call void @llvm.assume(i1 %17)
  %18 = tail call i32 @errcode(i32 noundef 67137668) #10
  %19 = tail call i32 (ptr, ...) @errmsg(ptr noundef nonnull @.str.4, i32 noundef %16) #10
  tail call void @errfinish(ptr noundef nonnull @.str.1, i32 noundef 497, ptr noundef nonnull @__func__.replorigin_by_oid) #10
  unreachable

20:                                               ; preds = %14, %6
  ret i1 %.not
}